; Function Attrs: mustprogress uwtable
define void @_Z21_gmx_selvalue_reserveP18gmx_ana_selvalue_ti(ptr noundef captures(none) %0, i32 noundef %1) local_unnamed_addr #1 personality ptr @__gxx_personality_v0 {
  %3 = getelementptr inbounds nuw i8, ptr %0, i64 16
  %4 = load i32, ptr %3, align 8, !tbaa !4
  %5 = icmp eq i32 %4, -1
  br i1 %5, label %57, label %6

6:                                                ; preds = %2
  %7 = getelementptr inbounds nuw i8, ptr %0, i64 8
  %8 = load ptr, ptr %7, align 8, !tbaa !11
  %.not = icmp eq ptr %8, null
  %9 = icmp slt i32 %4, %1
  %or.cond = or i1 %9, %.not
  br i1 %or.cond, label %10, label %57

10:                                               ; preds = %6
  %11 = load i32, ptr %0, align 8, !tbaa !10
  switch i32 %11, label %.loopexit [
    i32 1, label %12
    i32 2, label %15
    i32 3, label %18
    i32 4, label %26
    i32 5, label %49
  ]

12:                                               ; preds = %10
  %13 = sext i32 %1 to i64
  %14 = tail call noundef ptr @_Z12save_reallocPKcS0_iPvmm(ptr noundef nonnull @.str.2, ptr noundef nonnull @.str.1, i32 noundef 88, ptr noundef %8, i64 noundef range(i64 -2147483648, 2147483648) %13, i64 noundef 4)
  br label %.loopexit.sink.split

15:                                               ; preds = %10
  %16 = sext i32 %1 to i64
  %17 = tail call noundef ptr @_Z12save_reallocPKcS0_iPvmm(ptr noundef nonnull @.str.3, ptr noundef nonnull @.str.1, i32 noundef 89, ptr noundef %8, i64 noundef range(i64 -2147483648, 2147483648) %16, i64 noundef 4)
  br label %.loopexit.sink.split

18:                                               ; preds = %10
  %19 = sext i32 %1 to i64
  %20 = tail call noundef ptr @_Z12save_reallocPKcS0_iPvmm(ptr noundef nonnull @.str.4, ptr noundef nonnull @.str.1, i32 noundef 91, ptr noundef %8, i64 noundef range(i64 -2147483648, 2147483648) %19, i64 noundef 8)
  store ptr %20, ptr %7, align 8, !tbaa !12
  %21 = load i32, ptr %3, align 8, !tbaa !4
  %22 = icmp slt i32 %21, %1
  br i1 %22, label %.lr.ph47.preheader, label %.loopexit

.lr.ph47.preheader:                               ; preds = %18
  %23 = sext i32 %21 to i64
  br label %.lr.ph47

.lr.ph47:                                         ; preds = %.lr.ph47.preheader, %.lr.ph47
  %indvars.iv51 = phi i64 [ %23, %.lr.ph47.preheader ], [ %indvars.iv.next52, %.lr.ph47 ]
  %24 = load ptr, ptr %7, align 8, !tbaa !11
  %25 = getelementptr inbounds ptr, ptr %24, i64 %indvars.iv51
  store ptr null, ptr %25, align 8, !tbaa !16
  %indvars.iv.next52 = add nsw i64 %indvars.iv51, 1
  %exitcond54.not = icmp eq i64 %indvars.iv.next52, %19
  br i1 %exitcond54.not, label %.loopexit, label %.lr.ph47, !llvm.loop !18

26:                                               ; preds = %10
  br i1 %.not, label %28, label %27

27:                                               ; preds = %26
  tail call void @_ZN3gmx8internal13assertHandlerEPKcS2_S2_S2_i(ptr noundef nonnull @.str.6, ptr noundef nonnull @.str.7, ptr noundef nonnull @"__PRETTY_FUNCTION__._ZZ21_gmx_selvalue_reserveP18gmx_ana_selvalue_tiENK3$_0clEv", ptr noundef nonnull @.str.1, i32 noundef 99) #12
  unreachable

28:                                               ; preds = %26
  %29 = sext i32 %1 to i64
  %30 = tail call { i64, i1 } @llvm.umul.with.overflow.i64(i64 %29, i64 152)
  %31 = extractvalue { i64, i1 } %30, 1
  %32 = extractvalue { i64, i1 } %30, 0
  %33 = tail call { i64, i1 } @llvm.uadd.with.overflow.i64(i64 %32, i64 8)
  %34 = extractvalue { i64, i1 } %33, 1
  %35 = or i1 %31, %34
  %36 = extractvalue { i64, i1 } %33, 0
  %37 = select i1 %35, i64 -1, i64 %36
  %38 = tail call noalias noundef nonnull ptr @_Znam(i64 noundef %37) #13
  store i64 %29, ptr %38, align 16
  %.ptr36 = getelementptr inbounds nuw i8, ptr %38, i64 8
  %39 = icmp eq i32 %1, 0
  br i1 %39, label %.loopexit.sink.split, label %40

40:                                               ; preds = %28
  %41 = getelementptr inbounds %struct.gmx_ana_pos_t, ptr %.ptr36, i64 %29
  br label %42

42:                                               ; preds = %43, %40
  %.idx = phi i64 [ 8, %40 ], [ %.add, %43 ]
  %.ptr.ptr = getelementptr inbounds nuw i8, ptr %38, i64 %.idx
  invoke void @_ZN13gmx_ana_pos_tC1Ev(ptr noundef nonnull align 8 dereferenceable(148) %.ptr.ptr)
          to label %43 unwind label %45

43:                                               ; preds = %42
  %.add = add nuw nsw i64 %.idx, 152
  %.ptr35 = getelementptr inbounds nuw i8, ptr %38, i64 %.add
  %44 = icmp eq ptr %.ptr35, %41
  br i1 %44, label %.loopexit.sink.split, label %42

45:                                               ; preds = %42
  %46 = landingpad { ptr, i32 }
          cleanup
  %47 = icmp eq i64 %.idx, 8
  br i1 %47, label %.loopexit41, label %.preheader

.preheader:                                       ; preds = %45, %.preheader
  %.idx37 = phi i64 [ %.add38, %.preheader ], [ %.idx, %45 ]
  %.add38 = add nsw i64 %.idx37, -152
  %.ptr40 = getelementptr inbounds i8, ptr %38, i64 %.add38
  tail call void @_ZN13gmx_ana_pos_tD1Ev(ptr noundef nonnull align 8 dereferenceable(148) %.ptr40) #10
  %48 = icmp eq i64 %.add38, 8
  br i1 %48, label %.loopexit41, label %.preheader

.loopexit41:                                      ; preds = %.preheader, %45
  tail call void @_ZdaPvm(ptr noundef nonnull %38, i64 noundef %37) #11
  resume { ptr, i32 } %46

49:                                               ; preds = %10
  %50 = sext i32 %1 to i64
  %51 = tail call noundef ptr @_Z12save_reallocPKcS0_iPvmm(ptr noundef nonnull @.str.5, ptr noundef nonnull @.str.1, i32 noundef 103, ptr noundef %8, i64 noundef range(i64 -2147483648, 2147483648) %50, i64 noundef 24)
  store ptr %51, ptr %7, align 8, !tbaa !20
  %52 = load i32, ptr %3, align 8, !tbaa !4
  %53 = icmp slt i32 %52, %1
  br i1 %53, label %.lr.ph.preheader, label %.loopexit

.lr.ph.preheader:                                 ; preds = %49
  %54 = sext i32 %52 to i64
  br label %.lr.ph

.lr.ph:                                           ; preds = %.lr.ph.preheader, %.lr.ph
  %indvars.iv = phi i64 [ %54, %.lr.ph.preheader ], [ %indvars.iv.next, %.lr.ph ]
  %55 = load ptr, ptr %7, align 8, !tbaa !11
  %56 = getelementptr inbounds %struct.gmx_ana_index_t, ptr %55, i64 %indvars.iv
  tail call void @_Z19gmx_ana_index_clearP15gmx_ana_index_t(ptr noundef %56)
  %indvars.iv.next = add nsw i64 %indvars.iv, 1
  %lftr.wideiv = trunc i64 %indvars.iv.next to i32
  %exitcond.not = icmp eq i32 %1, %lftr.wideiv
  br i1 %exitcond.not, label %.loopexit, label %.lr.ph, !llvm.loop !22

.loopexit.sink.split:                             ; preds = %43, %28, %12, %15
  %.ptr36.sink = phi ptr [ %17, %15 ], [ %14, %12 ], [ %.ptr36, %28 ], [ %.ptr36, %43 ]
  store ptr %.ptr36.sink, ptr %7, align 8, !tbaa !11
  br label %.loopexit

.loopexit:                                        ; preds = %.lr.ph, %.lr.ph47, %.loopexit.sink.split, %49, %18, %10
  store i32 %1, ptr %3, align 8, !tbaa !4
  br label %57

57:                                               ; preds = %.loopexit, %6, %2
  ret void
}